target datalayout = "e-m:e-p270:32:32-p271:32:32-p272:64:64-i64:64-i128:128-f80:128-n8:16:32:64-S128"
target triple = "x86_64-pc-linux-gnu"

%"struct.duckdb_brotli::BrotliDistanceCodeLimit" = type { i32, i32 }
%struct.BrotliDistanceParams = type { i32, i32, i32, i32, i64 }

; Function Attrs: alwaysinline mustprogress nounwind uwtable
define internal i64 @_ZN13duckdb_brotliL32BrotliCalculateDistanceCodeLimitEjjj(i32 noundef %0, i32 noundef %1, i32 noundef %2) #2 {
  %4 = alloca %"struct.duckdb_brotli::BrotliDistanceCodeLimit", align 4
  %5 = alloca i32, align 4
  %6 = alloca i32, align 4
  %7 = alloca i32, align 4
  %8 = alloca i32, align 4
  %9 = alloca i32, align 4
  %10 = alloca i32, align 4
  %11 = alloca i32, align 4
  %12 = alloca i32, align 4
  %13 = alloca i32, align 4
  %14 = alloca i32, align 4
  %15 = alloca i32, align 4
  %16 = alloca i32, align 4
  %17 = alloca i32, align 4
  store i32 %0, ptr %5, align 4, !tbaa !8
  store i32 %1, ptr %6, align 4, !tbaa !8
  store i32 %2, ptr %7, align 4, !tbaa !8
  %18 = load i32, ptr %5, align 4, !tbaa !8
  %19 = load i32, ptr %7, align 4, !tbaa !8
  %20 = icmp ule i32 %18, %19
  br i1 %20, label %21, label %27

21:                                               ; preds = %3
  %22 = load i32, ptr %5, align 4, !tbaa !8
  %23 = add i32 %22, 16
  %24 = getelementptr inbounds nuw %"struct.duckdb_brotli::BrotliDistanceCodeLimit", ptr %4, i32 0, i32 0
  store i32 %23, ptr %24, align 4, !tbaa !14
  %25 = load i32, ptr %5, align 4, !tbaa !8
  %26 = getelementptr inbounds nuw %"struct.duckdb_brotli::BrotliDistanceCodeLimit", ptr %4, i32 0, i32 1
  store i32 %25, ptr %26, align 4, !tbaa !16
  br label %112

27:                                               ; preds = %3
  call void @llvm.lifetime.start.p0(i64 4, ptr %8) #9
  %28 = load i32, ptr %5, align 4, !tbaa !8
  %29 = add i32 %28, 1
  store i32 %29, ptr %8, align 4, !tbaa !8
  call void @llvm.lifetime.start.p0(i64 4, ptr %9) #9
  %30 = load i32, ptr %8, align 4, !tbaa !8
  %31 = load i32, ptr %7, align 4, !tbaa !8
  %32 = sub i32 %30, %31
  %33 = sub i32 %32, 1
  store i32 %33, ptr %9, align 4, !tbaa !8
  call void @llvm.lifetime.start.p0(i64 4, ptr %10) #9
  store i32 0, ptr %10, align 4, !tbaa !8
  call void @llvm.lifetime.start.p0(i64 4, ptr %11) #9
  call void @llvm.lifetime.start.p0(i64 4, ptr %12) #9
  call void @llvm.lifetime.start.p0(i64 4, ptr %13) #9
  call void @llvm.lifetime.start.p0(i64 4, ptr %14) #9
  %34 = load i32, ptr %6, align 4, !tbaa !8
  %35 = shl i32 1, %34
  %36 = sub i32 %35, 1
  store i32 %36, ptr %14, align 4, !tbaa !8
  call void @llvm.lifetime.start.p0(i64 4, ptr %15) #9
  call void @llvm.lifetime.start.p0(i64 4, ptr %16) #9
  %37 = load i32, ptr %9, align 4, !tbaa !8
  %38 = load i32, ptr %6, align 4, !tbaa !8
  %39 = lshr i32 %37, %38
  %40 = add i32 %39, 4
  store i32 %40, ptr %9, align 4, !tbaa !8
  %41 = load i32, ptr %9, align 4, !tbaa !8
  %42 = udiv i32 %41, 2
  store i32 %42, ptr %11, align 4, !tbaa !8
  br label %43

43:                                               ; preds = %46, %27
  %44 = load i32, ptr %11, align 4, !tbaa !8
  %45 = icmp ne i32 %44, 0
  br i1 %45, label %46, label %51

46:                                               ; preds = %43
  %47 = load i32, ptr %10, align 4, !tbaa !8
  %48 = add i32 %47, 1
  store i32 %48, ptr %10, align 4, !tbaa !8
  %49 = load i32, ptr %11, align 4, !tbaa !8
  %50 = lshr i32 %49, 1
  store i32 %50, ptr %11, align 4, !tbaa !8
  br label %43, !llvm.loop !20

51:                                               ; preds = %43
  %52 = load i32, ptr %10, align 4, !tbaa !8
  %53 = add i32 %52, -1
  store i32 %53, ptr %10, align 4, !tbaa !8
  %54 = load i32, ptr %9, align 4, !tbaa !8
  %55 = load i32, ptr %10, align 4, !tbaa !8
  %56 = lshr i32 %54, %55
  %57 = and i32 %56, 1
  store i32 %57, ptr %12, align 4, !tbaa !8
  %58 = load i32, ptr %10, align 4, !tbaa !8
  %59 = sub i32 %58, 1
  %60 = shl i32 %59, 1
  %61 = load i32, ptr %12, align 4, !tbaa !8
  %62 = or i32 %60, %61
  store i32 %62, ptr %13, align 4, !tbaa !8
  %63 = load i32, ptr %13, align 4, !tbaa !8
  %64 = icmp eq i32 %63, 0
  br i1 %64, label %65, label %71

65:                                               ; preds = %51
  %66 = load i32, ptr %7, align 4, !tbaa !8
  %67 = add i32 %66, 16
  %68 = getelementptr inbounds nuw %"struct.duckdb_brotli::BrotliDistanceCodeLimit", ptr %4, i32 0, i32 0
  store i32 %67, ptr %68, align 4, !tbaa !14
  %69 = load i32, ptr %7, align 4, !tbaa !8
  %70 = getelementptr inbounds nuw %"struct.duckdb_brotli::BrotliDistanceCodeLimit", ptr %4, i32 0, i32 1
  store i32 %69, ptr %70, align 4, !tbaa !16
  store i32 1, ptr %17, align 4
  br label %111

71:                                               ; preds = %51
  %72 = load i32, ptr %13, align 4, !tbaa !8
  %73 = add i32 %72, -1
  store i32 %73, ptr %13, align 4, !tbaa !8
  %74 = load i32, ptr %13, align 4, !tbaa !8
  %75 = lshr i32 %74, 1
  %76 = add i32 %75, 1
  store i32 %76, ptr %10, align 4, !tbaa !8
  %77 = load i32, ptr %10, align 4, !tbaa !8
  %78 = shl i32 1, %77
  %79 = sub i32 %78, 1
  store i32 %79, ptr %15, align 4, !tbaa !8
  %80 = load i32, ptr %10, align 4, !tbaa !8
  %81 = add i32 %80, 1
  %82 = shl i32 1, %81
  %83 = sub i32 %82, 4
  store i32 %83, ptr %16, align 4, !tbaa !8
  %84 = load i32, ptr %13, align 4, !tbaa !8
  %85 = and i32 %84, 1
  %86 = load i32, ptr %10, align 4, !tbaa !8
  %87 = shl i32 %85, %86
  %88 = load i32, ptr %16, align 4, !tbaa !8
  %89 = add i32 %88, %87
  store i32 %89, ptr %16, align 4, !tbaa !8
  %90 = load i32, ptr %13, align 4, !tbaa !8
  %91 = load i32, ptr %6, align 4, !tbaa !8
  %92 = shl i32 %90, %91
  %93 = load i32, ptr %14, align 4, !tbaa !8
  %94 = or i32 %92, %93
  %95 = load i32, ptr %7, align 4, !tbaa !8
  %96 = add i32 %94, %95
  %97 = add i32 %96, 16
  %98 = add i32 %97, 1
  %99 = getelementptr inbounds nuw %"struct.duckdb_brotli::BrotliDistanceCodeLimit", ptr %4, i32 0, i32 0
  store i32 %98, ptr %99, align 4, !tbaa !14
  %100 = load i32, ptr %16, align 4, !tbaa !8
  %101 = load i32, ptr %15, align 4, !tbaa !8
  %102 = add i32 %100, %101
  %103 = load i32, ptr %6, align 4, !tbaa !8
  %104 = shl i32 %102, %103
  %105 = load i32, ptr %14, align 4, !tbaa !8
  %106 = add i32 %104, %105
  %107 = load i32, ptr %7, align 4, !tbaa !8
  %108 = add i32 %106, %107
  %109 = add i32 %108, 1
  %110 = getelementptr inbounds nuw %"struct.duckdb_brotli::BrotliDistanceCodeLimit", ptr %4, i32 0, i32 1
  store i32 %109, ptr %110, align 4, !tbaa !16
  store i32 1, ptr %17, align 4
  br label %111

111:                                              ; preds = %71, %65
  call void @llvm.lifetime.end.p0(i64 4, ptr %16) #9
  call void @llvm.lifetime.end.p0(i64 4, ptr %15) #9
  call void @llvm.lifetime.end.p0(i64 4, ptr %14) #9
  call void @llvm.lifetime.end.p0(i64 4, ptr %13) #9
  call void @llvm.lifetime.end.p0(i64 4, ptr %12) #9
  call void @llvm.lifetime.end.p0(i64 4, ptr %11) #9
  call void @llvm.lifetime.end.p0(i64 4, ptr %10) #9
  call void @llvm.lifetime.end.p0(i64 4, ptr %9) #9
  call void @llvm.lifetime.end.p0(i64 4, ptr %8) #9
  br label %112

112:                                              ; preds = %111, %21
  %113 = load i64, ptr %4, align 4
  ret i64 %113
}

; Function Attrs: mustprogress uwtable
define void @_ZN13duckdb_brotli24BrotliInitDistanceParamsEP20BrotliDistanceParamsjji(ptr noundef %0, i32 noundef %1, i32 noundef %2, i32 noundef %3) #0 {
  %5 = alloca ptr, align 8
  %6 = alloca i32, align 4
  %7 = alloca i32, align 4
  %8 = alloca i32, align 4
  %9 = alloca i32, align 4
  %10 = alloca i32, align 4
  %11 = alloca i32, align 4
  %12 = alloca %"struct.duckdb_brotli::BrotliDistanceCodeLimit", align 4
  store ptr %0, ptr %5, align 8, !tbaa !3
  store i32 %1, ptr %6, align 4, !tbaa !8
  store i32 %2, ptr %7, align 4, !tbaa !8
  store i32 %3, ptr %8, align 4, !tbaa !8
  call void @llvm.lifetime.start.p0(i64 4, ptr %9) #9
  call void @llvm.lifetime.start.p0(i64 4, ptr %10) #9
  call void @llvm.lifetime.start.p0(i64 4, ptr %11) #9
  %13 = load i32, ptr %6, align 4, !tbaa !8
  %14 = load ptr, ptr %5, align 8, !tbaa !3
  %15 = getelementptr inbounds nuw %struct.BrotliDistanceParams, ptr %14, i32 0, i32 0
  store i32 %13, ptr %15, align 8, !tbaa !10
  %16 = load i32, ptr %7, align 4, !tbaa !8
  %17 = load ptr, ptr %5, align 8, !tbaa !3
  %18 = getelementptr inbounds nuw %struct.BrotliDistanceParams, ptr %17, i32 0, i32 1
  store i32 %16, ptr %18, align 4, !tbaa !13
  %19 = load i32, ptr %7, align 4, !tbaa !8
  %20 = add i32 16, %19
  %21 = load i32, ptr %6, align 4, !tbaa !8
  %22 = add i32 %21, 1
  %23 = shl i32 24, %22
  %24 = add i32 %20, %23
  store i32 %24, ptr %9, align 4, !tbaa !8
  %25 = load i32, ptr %9, align 4, !tbaa !8
  store i32 %25, ptr %10, align 4, !tbaa !8
  %26 = load i32, ptr %7, align 4, !tbaa !8
  %27 = load i32, ptr %6, align 4, !tbaa !8
  %28 = add i32 24, %27
  %29 = add i32 %28, 2
  %30 = shl i32 1, %29
  %31 = add i32 %26, %30
  %32 = load i32, ptr %6, align 4, !tbaa !8
  %33 = add i32 %32, 2
  %34 = shl i32 1, %33
  %35 = sub i32 %31, %34
  store i32 %35, ptr %11, align 4, !tbaa !8
  %36 = load i32, ptr %8, align 4, !tbaa !8
  %37 = icmp ne i32 %36, 0
  br i1 %37, label %38, label %52

38:                                               ; preds = %4
  call void @llvm.lifetime.start.p0(i64 8, ptr %12) #9
  %39 = load i32, ptr %6, align 4, !tbaa !8
  %40 = load i32, ptr %7, align 4, !tbaa !8
  %41 = call i64 @_ZN13duckdb_brotliL32BrotliCalculateDistanceCodeLimitEjjj(i32 noundef 2147483644, i32 noundef %39, i32 noundef %40)
  store i64 %41, ptr %12, align 4
  %42 = load i32, ptr %7, align 4, !tbaa !8
  %43 = add i32 16, %42
  %44 = load i32, ptr %6, align 4, !tbaa !8
  %45 = add i32 %44, 1
  %46 = shl i32 62, %45
  %47 = add i32 %43, %46
  store i32 %47, ptr %9, align 4, !tbaa !8
  %48 = getelementptr inbounds nuw %"struct.duckdb_brotli::BrotliDistanceCodeLimit", ptr %12, i32 0, i32 0
  %49 = load i32, ptr %48, align 4, !tbaa !14
  store i32 %49, ptr %10, align 4, !tbaa !8
  %50 = getelementptr inbounds nuw %"struct.duckdb_brotli::BrotliDistanceCodeLimit", ptr %12, i32 0, i32 1
  %51 = load i32, ptr %50, align 4, !tbaa !16
  store i32 %51, ptr %11, align 4, !tbaa !8
  call void @llvm.lifetime.end.p0(i64 8, ptr %12) #9
  br label %52

52:                                               ; preds = %38, %4
  %53 = load i32, ptr %9, align 4, !tbaa !8
  %54 = load ptr, ptr %5, align 8, !tbaa !3
  %55 = getelementptr inbounds nuw %struct.BrotliDistanceParams, ptr %54, i32 0, i32 2
  store i32 %53, ptr %55, align 8, !tbaa !17
  %56 = load i32, ptr %10, align 4, !tbaa !8
  %57 = load ptr, ptr %5, align 8, !tbaa !3
  %58 = getelementptr inbounds nuw %struct.BrotliDistanceParams, ptr %57, i32 0, i32 3
  store i32 %56, ptr %58, align 4, !tbaa !18
  %59 = load i32, ptr %11, align 4, !tbaa !8
  %60 = zext i32 %59 to i64
  %61 = load ptr, ptr %5, align 8, !tbaa !3
  %62 = getelementptr inbounds nuw %struct.BrotliDistanceParams, ptr %61, i32 0, i32 4
  store i64 %60, ptr %62, align 8, !tbaa !19
  call void @llvm.lifetime.end.p0(i64 4, ptr %11) #9
  call void @llvm.lifetime.end.p0(i64 4, ptr %10) #9
  call void @llvm.lifetime.end.p0(i64 4, ptr %9) #9
  ret void
}