; Function Attrs: mustprogress nofree norecurse nosync nounwind memory(argmem: write) uwtable
define void @_ZN13duckdb_brotli24BrotliInitDistanceParamsEP20BrotliDistanceParamsjji(ptr noundef writeonly captures(none) initializes((0, 8)) %0, i32 noundef %1, i32 noundef %2, i32 noundef %3) local_unnamed_addr #0 {
  store i32 %1, ptr %0, align 8, !tbaa !3
  %5 = getelementptr inbounds nuw i8, ptr %0, i64 4
  store i32 %2, ptr %5, align 4, !tbaa !9
  %6 = add i32 %2, 16
  %7 = add i32 %1, 1
  %8 = shl i32 24, %7
  %9 = add i32 %6, %8
  %10 = add i32 %1, 26
  %11 = shl nuw i32 1, %10
  %12 = add i32 %11, %2
  %13 = add i32 %1, 2
  %.neg = shl nsw i32 -1, %13
  %14 = add i32 %12, %.neg
  %.not = icmp eq i32 %3, 0
  br i1 %.not, label %54, label %15

15:                                               ; preds = %4
  %16 = icmp ugt i32 %2, 2147483643
  br i1 %16, label %_ZN13duckdb_brotliL32BrotliCalculateDistanceCodeLimitEjjj.exit, label %17

17:                                               ; preds = %15
  %18 = sub nuw nsw i32 2147483644, %2
  %notmask.i = shl nsw i32 -1, %1
  %19 = lshr i32 %18, %1
  %20 = add nuw i32 %19, 4
  br label %21

21:                                               ; preds = %17, %21
  %.0.i23 = phi i32 [ 0, %17 ], [ %22, %21 ]
  %.038.in.i22 = phi i32 [ %20, %17 ], [ %.038.i, %21 ]
  %.038.i = lshr i32 %.038.in.i22, 1
  %22 = add nuw nsw i32 %.0.i23, 1
  %.not.i = icmp ult i32 %.038.in.i22, 4
  br i1 %.not.i, label %23, label %21, !llvm.loop !10

23:                                               ; preds = %21
  %24 = lshr i32 %20, %.0.i23
  %25 = and i32 %24, 1
  %26 = shl nuw i32 %22, 1
  %27 = add i32 %26, -4
  %28 = or disjoint i32 %25, %27
  %29 = icmp eq i32 %28, 0
  br i1 %29, label %47, label %30

30:                                               ; preds = %23
  %31 = xor i32 %notmask.i, -1
  %32 = add i32 %28, -1
  %33 = lshr i32 %32, 1
  %34 = add nuw i32 %33, 1
  %35 = and i32 %32, 1
  %36 = shl nuw i32 %35, %34
  %37 = shl i32 %32, %1
  %38 = or i32 %37, %31
  %39 = add nuw i32 %2, 17
  %40 = add i32 %39, %38
  %41 = shl i32 6, %33
  %42 = add i32 %41, -5
  %43 = add i32 %42, %36
  %44 = shl i32 %43, %1
  %45 = sub i32 %2, %notmask.i
  %46 = add i32 %45, %44
  br label %47

47:                                               ; preds = %23, %30
  %.sroa.0.1.i = phi i32 [ %40, %30 ], [ %6, %23 ]
  %.sroa.4.1.i = phi i32 [ %46, %30 ], [ %2, %23 ]
  %48 = zext i32 %.sroa.4.1.i to i64
  %49 = shl nuw i64 %48, 32
  %50 = zext i32 %.sroa.0.1.i to i64
  %51 = or disjoint i64 %49, %50
  br label %_ZN13duckdb_brotliL32BrotliCalculateDistanceCodeLimitEjjj.exit

_ZN13duckdb_brotliL32BrotliCalculateDistanceCodeLimitEjjj.exit: ; preds = %15, %47
  %.sroa.0.0.insert.insert.i = phi i64 [ %51, %47 ], [ 9223372021822390284, %15 ]
  %.sroa.0.0.extract.trunc = trunc i64 %.sroa.0.0.insert.insert.i to i32
  %.sroa.4.0.extract.shift = lshr i64 %.sroa.0.0.insert.insert.i, 32
  %.sroa.4.0.extract.trunc = trunc nuw i64 %.sroa.4.0.extract.shift to i32
  %52 = shl i32 62, %7
  %53 = add i32 %6, %52
  br label %54

54:                                               ; preds = %_ZN13duckdb_brotliL32BrotliCalculateDistanceCodeLimitEjjj.exit, %4
  %.021 = phi i32 [ %.sroa.4.0.extract.trunc, %_ZN13duckdb_brotliL32BrotliCalculateDistanceCodeLimitEjjj.exit ], [ %14, %4 ]
  %.020 = phi i32 [ %.sroa.0.0.extract.trunc, %_ZN13duckdb_brotliL32BrotliCalculateDistanceCodeLimitEjjj.exit ], [ %9, %4 ]
  %.0 = phi i32 [ %53, %_ZN13duckdb_brotliL32BrotliCalculateDistanceCodeLimitEjjj.exit ], [ %9, %4 ]
  %55 = getelementptr inbounds nuw i8, ptr %0, i64 8
  store i32 %.0, ptr %55, align 8, !tbaa !12
  %56 = getelementptr inbounds nuw i8, ptr %0, i64 12
  store i32 %.020, ptr %56, align 4, !tbaa !13
  %57 = zext i32 %.021 to i64
  %58 = getelementptr inbounds nuw i8, ptr %0, i64 16
  store i64 %57, ptr %58, align 8, !tbaa !14
  ret void
}